(ideluge.core.torrentmanager
TorrentManagerState
p1
(dp2
S'torrents'
p3
(lp4
(ideluge.core.torrentmanager
TorrentState
p5
(dp6
S'max_download_speed'
p7
I-1
sS'move_completed_path'
p8
S'/home/tatsu/Downloads'
p9
sS'paused'
p10
I01
sS'max_upload_slots'
p11
I-1
sS'prioritize_first_last'
p12
I00
sS'max_connections'
p13
I-1
sS'compact'
p14
I00
sS'queue'
p15
I0
sS'file_priorities'
p16
(lp17
I1
aI1
aI1
aI1
aI1
aI1
aI1
aI1
aI1
aI1
aI1
aI1
aI1
aI1
aI1
aI1
aI1
aI1
aI1
aI1
aI1
aI1
aI1
aI1
aI1
aI1
aI1
aI1
aI1
aI1
aI1
aI1
aI1
aI1
aI1
aI1
aI1
aI1
aI1
aI1
aI1
aI1
aI1
aI1
aI1
aI1
aI1
aI1
aI1
aI1
aI1
aI1
aI1
aI1
aI1
aI1
aI1
aI1
asS'filename'
p18
S'fbcaac7e68925f4f974c2ae8f6b9c72e9e28c56b'
p19
sS'max_upload_speed'
p20
F-1
sS'save_path'
p21
S'/home/tatsu/Downloads'
p22
sS'time_added'
p23
F1447000951.8578351
sS'total_uploaded'
p24
I23190888
sS'torrent_id'
p25
g19
sS'auto_managed'
p26
I01
sS'stop_at_ratio'
p27
I00
sS'move_completed'
p28
I00
sS'trackers'
p29
(lp30
(dp31
S'send_stats'
p32
I01
sS'fails'
p33
I0
sS'verified'
p34
I00
sS'url'
p35
S'udp://tracker.publicbt.com:80/announce'
p36
sS'fail_limit'
p37
I0
sS'complete_sent'
p38
I00
sS'source'
p39
I4
sS'start_sent'
p40
I00
sS'tier'
p41
I0
sS'updating'
p42
I00
sa(dp43
S'send_stats'
p44
I01
sS'fails'
p45
I0
sS'verified'
p46
I00
sS'url'
p47
S'udp://open.demonii.com:1337'
p48
sS'fail_limit'
p49
I0
sS'complete_sent'
p50
I00
sS'source'
p51
I4
sS'start_sent'
p52
I00
sS'tier'
p53
I0
sS'updating'
p54
I00
sasS'magnet'
p55
S'magnet:?xt=urn:btih:FBCAAC7E68925F4F974C2AE8F6B9C72E9E28C56B&dn=fallout+4+steam+preload+mercs213&tr=udp%3A%2F%2Ftracker.publicbt.com%3A80%2Fannounce&tr=udp%3A%2F%2Fopen.demonii.com%3A1337'
p56
sS'remove_at_ratio'
p57
I00
sS'stop_ratio'
p58
F2
sS'is_finished'
p59
I00
sbasb.